; ModuleID = '8/970.c'
source_filename = "8/970.c"
target datalayout = "e-m:e-p270:32:32-p271:32:32-p272:64:64-i64:64-f80:128-n8:16:32:64-S128"
target triple = "x86_64-pc-linux-gnu"

@.str = private unnamed_addr constant [3 x i8] c"%d\00", align 1
@.str.1 = private unnamed_addr constant [2 x i8] c" \00", align 1
@.str.2 = private unnamed_addr constant [4 x i8] c" %d\00", align 1
@.str.3 = private unnamed_addr constant [5 x i8] c"%d%d\00", align 1

; Function Attrs: noinline nounwind uwtable
define dso_local i32 @work(i32 %0, i32 %1) #0 {
  %3 = alloca i32, align 4
  %4 = alloca i32, align 4
  %5 = alloca i32, align 4
  %6 = alloca i32, align 4
  %7 = alloca i32, align 4
  %8 = alloca [1002 x i32], align 16
  store i32 %0, i32* %3, align 4
  store i32 %1, i32* %4, align 4
  store i32 1, i32* %5, align 4
  br label %9

9:                                                ; preds = %18, %2
  %10 = load i32, i32* %5, align 4
  %11 = load i32, i32* %4, align 4
  %12 = icmp sle i32 %10, %11
  br i1 %12, label %13, label %21

13:                                               ; preds = %9
  %14 = load i32, i32* %5, align 4
  %15 = sext i32 %14 to i64
  %16 = getelementptr inbounds [1002 x i32], [1002 x i32]* %8, i64 0, i64 %15
  %17 = call i32 (i8*, ...) @__isoc99_scanf(i8* getelementptr inbounds ([3 x i8], [3 x i8]* @.str, i64 0, i64 0), i32* %16)
  br label %18

18:                                               ; preds = %13
  %19 = load i32, i32* %5, align 4
  %20 = add nsw i32 %19, 1
  store i32 %20, i32* %5, align 4
  br label %9

21:                                               ; preds = %9
  store i32 1, i32* %5, align 4
  br label %22

22:                                               ; preds = %64, %21
  %23 = load i32, i32* %5, align 4
  %24 = load i32, i32* %4, align 4
  %25 = icmp sle i32 %23, %24
  br i1 %25, label %26, label %67

26:                                               ; preds = %22
  %27 = load i32, i32* %5, align 4
  %28 = add nsw i32 %27, 1
  store i32 %28, i32* %6, align 4
  br label %29

29:                                               ; preds = %60, %26
  %30 = load i32, i32* %6, align 4
  %31 = load i32, i32* %4, align 4
  %32 = icmp sle i32 %30, %31
  br i1 %32, label %33, label %63

33:                                               ; preds = %29
  %34 = load i32, i32* %5, align 4
  %35 = sext i32 %34 to i64
  %36 = getelementptr inbounds [1002 x i32], [1002 x i32]* %8, i64 0, i64 %35
  %37 = load i32, i32* %36, align 4
  %38 = load i32, i32* %6, align 4
  %39 = sext i32 %38 to i64
  %40 = getelementptr inbounds [1002 x i32], [1002 x i32]* %8, i64 0, i64 %39
  %41 = load i32, i32* %40, align 4
  %42 = icmp sgt i32 %37, %41
  br i1 %42, label %43, label %59

43:                                               ; preds = %33
  %44 = load i32, i32* %5, align 4
  %45 = sext i32 %44 to i64
  %46 = getelementptr inbounds [1002 x i32], [1002 x i32]* %8, i64 0, i64 %45
  %47 = load i32, i32* %46, align 4
  store i32 %47, i32* %7, align 4
  %48 = load i32, i32* %6, align 4
  %49 = sext i32 %48 to i64
  %50 = getelementptr inbounds [1002 x i32], [1002 x i32]* %8, i64 0, i64 %49
  %51 = load i32, i32* %50, align 4
  %52 = load i32, i32* %5, align 4
  %53 = sext i32 %52 to i64
  %54 = getelementptr inbounds [1002 x i32], [1002 x i32]* %8, i64 0, i64 %53
  store i32 %51, i32* %54, align 4
  %55 = load i32, i32* %7, align 4
  %56 = load i32, i32* %6, align 4
  %57 = sext i32 %56 to i64
  %58 = getelementptr inbounds [1002 x i32], [1002 x i32]* %8, i64 0, i64 %57
  store i32 %55, i32* %58, align 4
  br label %59

59:                                               ; preds = %43, %33
  br label %60

60:                                               ; preds = %59
  %61 = load i32, i32* %6, align 4
  %62 = add nsw i32 %61, 1
  store i32 %62, i32* %6, align 4
  br label %29

63:                                               ; preds = %29
  br label %64

64:                                               ; preds = %63
  %65 = load i32, i32* %5, align 4
  %66 = add nsw i32 %65, 1
  store i32 %66, i32* %5, align 4
  br label %22

67:                                               ; preds = %22
  %68 = load i32, i32* %3, align 4
  %69 = icmp eq i32 %68, 2
  br i1 %69, label %70, label %72

70:                                               ; preds = %67
  %71 = call i32 (i8*, ...) @printf(i8* getelementptr inbounds ([2 x i8], [2 x i8]* @.str.1, i64 0, i64 0))
  br label %72

72:                                               ; preds = %70, %67
  %73 = getelementptr inbounds [1002 x i32], [1002 x i32]* %8, i64 0, i64 1
  %74 = load i32, i32* %73, align 4
  %75 = call i32 (i8*, ...) @printf(i8* getelementptr inbounds ([3 x i8], [3 x i8]* @.str, i64 0, i64 0), i32 %74)
  store i32 2, i32* %5, align 4
  br label %76

76:                                               ; preds = %86, %72
  %77 = load i32, i32* %5, align 4
  %78 = load i32, i32* %4, align 4
  %79 = icmp sle i32 %77, %78
  br i1 %79, label %80, label %89

80:                                               ; preds = %76
  %81 = load i32, i32* %5, align 4
  %82 = sext i32 %81 to i64
  %83 = getelementptr inbounds [1002 x i32], [1002 x i32]* %8, i64 0, i64 %82
  %84 = load i32, i32* %83, align 4
  %85 = call i32 (i8*, ...) @printf(i8* getelementptr inbounds ([4 x i8], [4 x i8]* @.str.2, i64 0, i64 0), i32 %84)
  br label %86

86:                                               ; preds = %80
  %87 = load i32, i32* %5, align 4
  %88 = add nsw i32 %87, 1
  store i32 %88, i32* %5, align 4
  br label %76

89:                                               ; preds = %76
  ret i32 0
}

declare dso_local i32 @__isoc99_scanf(i8*, ...) #1

declare dso_local i32 @printf(i8*, ...) #1

; Function Attrs: noinline nounwind uwtable
define dso_local i32 @main() #0 {
  %1 = alloca i32, align 4
  %2 = alloca i32, align 4
  %3 = alloca i32, align 4
  store i32 0, i32* %1, align 4
  %4 = call i32 (i8*, ...) @__isoc99_scanf(i8* getelementptr inbounds ([5 x i8], [5 x i8]* @.str.3, i64 0, i64 0), i32* %2, i32* %3)
  %5 = load i32, i32* %2, align 4
  %6 = call i32 @work(i32 1, i32 %5)
  %7 = load i32, i32* %3, align 4
  %8 = call i32 @work(i32 2, i32 %7)
  ret i32 0
}


!llvm.module.flags = !{!0}
!llvm.ident = !{!1}

!0 = !{i32 1, !"wchar_size", i32 4}
!1 = !{!"clang version 10.0.0-4ubuntu1 "}
